target datalayout = "e-m:e-p270:32:32-p271:32:32-p272:64:64-i64:64-i128:128-f80:128-n8:16:32:64-S128"
target triple = "x86_64-pc-linux-gnu"

%"class.boost::shared_ptr" = type { ptr, %"class.boost::detail::shared_count" }
%"class.boost::detail::shared_count" = type { ptr }
%"class.std::__cxx11::basic_string" = type { %"struct.std::__cxx11::basic_string<char>::_Alloc_hider", i64, %union.anon }
%"struct.std::__cxx11::basic_string<char>::_Alloc_hider" = type { ptr }
%union.anon = type { i64, [8 x i8] }
%"struct.boost::log::v2_mt_posix::aux::shared_lock_guard" = type { ptr }
%"struct.boost::log::v2_mt_posix::attribute_name::repository::node" = type { %"class.boost::intrusive::set_base_hook", i32, %"class.std::__cxx11::basic_string" }
%"class.boost::intrusive::set_base_hook" = type { %"class.boost::intrusive::generic_hook" }
%"class.boost::intrusive::generic_hook" = type { %"struct.boost::intrusive::node_holder" }
%"struct.boost::intrusive::node_holder" = type { %"struct.boost::intrusive::compact_rbtree_node" }
%"struct.boost::intrusive::compact_rbtree_node" = type { ptr, ptr, ptr }
%"class.boost::log::v2_mt_posix::attribute_name::repository" = type { %"class.boost::log::v2_mt_posix::aux::light_rw_mutex", %"class.std::deque", %"class.boost::intrusive::set" }
%"class.boost::log::v2_mt_posix::aux::light_rw_mutex" = type { %union.pthread_rwlock_t }
%union.pthread_rwlock_t = type { %struct.__pthread_rwlock_arch_t }
%struct.__pthread_rwlock_arch_t = type { i32, i32, i32, i32, i32, i32, i32, i32, i8, [7 x i8], i64, i32 }
%"class.std::deque" = type { %"class.std::_Deque_base" }
%"class.std::_Deque_base" = type { %"struct.std::_Deque_base<boost::log::v2_mt_posix::attribute_name::repository::node, std::allocator<boost::log::v2_mt_posix::attribute_name::repository::node>>::_Deque_impl" }
%"struct.std::_Deque_base<boost::log::v2_mt_posix::attribute_name::repository::node, std::allocator<boost::log::v2_mt_posix::attribute_name::repository::node>>::_Deque_impl" = type { %"struct.std::_Deque_base<boost::log::v2_mt_posix::attribute_name::repository::node, std::allocator<boost::log::v2_mt_posix::attribute_name::repository::node>>::_Deque_impl_data" }
%"struct.std::_Deque_base<boost::log::v2_mt_posix::attribute_name::repository::node, std::allocator<boost::log::v2_mt_posix::attribute_name::repository::node>>::_Deque_impl_data" = type { ptr, i64, %"struct.std::_Deque_iterator", %"struct.std::_Deque_iterator" }
%"struct.std::_Deque_iterator" = type { ptr, ptr, ptr, ptr }
%"class.boost::intrusive::set" = type { %"class.boost::intrusive::set_impl" }
%"class.boost::intrusive::set_impl" = type { %"class.boost::intrusive::bstree_impl" }
%"class.boost::intrusive::bstree_impl" = type { %"struct.boost::intrusive::bstbase" }
%"struct.boost::intrusive::bstbase" = type { %"struct.boost::intrusive::bstbase_hack" }
%"struct.boost::intrusive::bstbase_hack" = type { %"struct.boost::intrusive::bstbase2" }
%"struct.boost::intrusive::bstbase2" = type { %"struct.boost::intrusive::bstbase3" }
%"struct.boost::intrusive::bstbase3" = type { %"struct.boost::intrusive::bstbase3<boost::intrusive::bhtraits<boost::log::v2_mt_posix::attribute_name::repository::node, boost::intrusive::rbtree_node_traits<void *, true>, boost::intrusive::safe_link, boost::intrusive::dft_tag, 3>, boost::intrusive::RbTreeAlgorithms, void>::holder_t" }
%"struct.boost::intrusive::bstbase3<boost::intrusive::bhtraits<boost::log::v2_mt_posix::attribute_name::repository::node, boost::intrusive::rbtree_node_traits<void *, true>, boost::intrusive::safe_link, boost::intrusive::dft_tag, 3>, boost::intrusive::RbTreeAlgorithms, void>::holder_t" = type { %"struct.boost::intrusive::detail::default_header_holder" }
%"struct.boost::intrusive::detail::default_header_holder" = type { %"struct.boost::intrusive::compact_rbtree_node" }

; Function Attrs: inlinehint mustprogress nounwind uwtable
define linkonce_odr noundef i64 @_ZSt16__deque_buf_sizem(i64 noundef %0) #7 comdat {
  %2 = alloca i64, align 8
  store i64 %0, ptr %2, align 8, !tbaa !26
  %3 = load i64, ptr %2, align 8, !tbaa !26
  %4 = icmp ult i64 %3, 512
  br i1 %4, label %5, label %8

5:                                                ; preds = %1
  %6 = load i64, ptr %2, align 8, !tbaa !26
  %7 = udiv i64 512, %6
  br label %9

8:                                                ; preds = %1
  br label %9

9:                                                ; preds = %8, %5
  %10 = phi i64 [ %7, %5 ], [ 1, %8 ]
  ret i64 %10
}

; Function Attrs: mustprogress nounwind uwtable
define linkonce_odr hidden void @_ZNSt15_Deque_iteratorIN5boost3log11v2_mt_posix14attribute_name10repository4nodeERS5_PS5_E11_M_set_nodeEPS7_(ptr noundef nonnull align 8 dereferenceable(32) %0, ptr noundef %1) #2 comdat align 2 {
  %3 = alloca ptr, align 8
  %4 = alloca ptr, align 8
  store ptr %0, ptr %3, align 8, !tbaa !3
  store ptr %1, ptr %4, align 8, !tbaa !3
  %5 = load ptr, ptr %3, align 8
  %6 = load ptr, ptr %4, align 8, !tbaa !3
  %7 = getelementptr inbounds nuw %"struct.std::_Deque_iterator", ptr %5, i32 0, i32 3
  store ptr %6, ptr %7, align 8, !tbaa !49
  %8 = load ptr, ptr %4, align 8, !tbaa !3
  %9 = load ptr, ptr %8, align 8, !tbaa !3
  %10 = getelementptr inbounds nuw %"struct.std::_Deque_iterator", ptr %5, i32 0, i32 1
  store ptr %9, ptr %10, align 8, !tbaa !52
  %11 = getelementptr inbounds nuw %"struct.std::_Deque_iterator", ptr %5, i32 0, i32 1
  %12 = load ptr, ptr %11, align 8, !tbaa !52
  %13 = call noundef i64 @_ZNSt15_Deque_iteratorIN5boost3log11v2_mt_posix14attribute_name10repository4nodeERS5_PS5_E14_S_buffer_sizeEv() #19
  %14 = getelementptr inbounds %"struct.boost::log::v2_mt_posix::attribute_name::repository::node", ptr %12, i64 %13
  %15 = getelementptr inbounds nuw %"struct.std::_Deque_iterator", ptr %5, i32 0, i32 2
  store ptr %14, ptr %15, align 8, !tbaa !53
  ret void
}

; Function Attrs: mustprogress nounwind uwtable
define linkonce_odr hidden noundef i64 @_ZNSt15_Deque_iteratorIN5boost3log11v2_mt_posix14attribute_name10repository4nodeERS5_PS5_E14_S_buffer_sizeEv() #2 comdat align 2 personality ptr @__gxx_personality_v0 {
  %1 = invoke noundef i64 @_ZSt16__deque_buf_sizem(i64 noundef 64)
          to label %2 unwind label %3

2:                                                ; preds = %0
  ret i64 %1

3:                                                ; preds = %0
  %4 = landingpad { ptr, i32 }
          catch ptr null
  %5 = extractvalue { ptr, i32 } %4, 0
  call void @__clang_call_terminate(ptr %5) #20
  unreachable
}

; Function Attrs: mustprogress nounwind uwtable
define linkonce_odr hidden noundef nonnull align 8 dereferenceable(32) ptr @_ZNSt15_Deque_iteratorIN5boost3log11v2_mt_posix14attribute_name10repository4nodeERS5_PS5_EpLEl(ptr noundef nonnull align 8 dereferenceable(32) %0, i64 noundef %1) #2 comdat align 2 {
  %3 = alloca ptr, align 8
  %4 = alloca i64, align 8
  %5 = alloca i64, align 8
  %6 = alloca i64, align 8
  store ptr %0, ptr %3, align 8, !tbaa !3
  store i64 %1, ptr %4, align 8, !tbaa !26
  %7 = load ptr, ptr %3, align 8
  call void @llvm.lifetime.start.p0(i64 8, ptr %5) #19
  %8 = load i64, ptr %4, align 8, !tbaa !26
  %9 = getelementptr inbounds nuw %"struct.std::_Deque_iterator", ptr %7, i32 0, i32 0
  %10 = load ptr, ptr %9, align 8, !tbaa !51
  %11 = getelementptr inbounds nuw %"struct.std::_Deque_iterator", ptr %7, i32 0, i32 1
  %12 = load ptr, ptr %11, align 8, !tbaa !52
  %13 = ptrtoint ptr %10 to i64
  %14 = ptrtoint ptr %12 to i64
  %15 = sub i64 %13, %14
  %16 = sdiv exact i64 %15, 64
  %17 = add nsw i64 %8, %16
  store i64 %17, ptr %5, align 8, !tbaa !26
  %18 = load i64, ptr %5, align 8, !tbaa !26
  %19 = icmp sge i64 %18, 0
  br i1 %19, label %20, label %29

20:                                               ; preds = %2
  %21 = load i64, ptr %5, align 8, !tbaa !26
  %22 = call noundef i64 @_ZNSt15_Deque_iteratorIN5boost3log11v2_mt_posix14attribute_name10repository4nodeERS5_PS5_E14_S_buffer_sizeEv() #19
  %23 = icmp slt i64 %21, %22
  br i1 %23, label %24, label %29

24:                                               ; preds = %20
  %25 = load i64, ptr %4, align 8, !tbaa !26
  %26 = getelementptr inbounds nuw %"struct.std::_Deque_iterator", ptr %7, i32 0, i32 0
  %27 = load ptr, ptr %26, align 8, !tbaa !51
  %28 = getelementptr inbounds %"struct.boost::log::v2_mt_posix::attribute_name::repository::node", ptr %27, i64 %25
  store ptr %28, ptr %26, align 8, !tbaa !51
  br label %59

29:                                               ; preds = %20, %2
  call void @llvm.lifetime.start.p0(i64 8, ptr %6) #19
  %30 = load i64, ptr %5, align 8, !tbaa !26
  %31 = icmp sgt i64 %30, 0
  br i1 %31, label %32, label %36

32:                                               ; preds = %29
  %33 = load i64, ptr %5, align 8, !tbaa !26
  %34 = call noundef i64 @_ZNSt15_Deque_iteratorIN5boost3log11v2_mt_posix14attribute_name10repository4nodeERS5_PS5_E14_S_buffer_sizeEv() #19
  %35 = sdiv i64 %33, %34
  br label %44

36:                                               ; preds = %29
  %37 = load i64, ptr %5, align 8, !tbaa !26
  %38 = sub nsw i64 0, %37
  %39 = sub nsw i64 %38, 1
  %40 = call noundef i64 @_ZNSt15_Deque_iteratorIN5boost3log11v2_mt_posix14attribute_name10repository4nodeERS5_PS5_E14_S_buffer_sizeEv() #19
  %41 = udiv i64 %39, %40
  %42 = sub nsw i64 0, %41
  %43 = sub nsw i64 %42, 1
  br label %44

44:                                               ; preds = %36, %32
  %45 = phi i64 [ %35, %32 ], [ %43, %36 ]
  store i64 %45, ptr %6, align 8, !tbaa !26
  %46 = getelementptr inbounds nuw %"struct.std::_Deque_iterator", ptr %7, i32 0, i32 3
  %47 = load ptr, ptr %46, align 8, !tbaa !49
  %48 = load i64, ptr %6, align 8, !tbaa !26
  %49 = getelementptr inbounds ptr, ptr %47, i64 %48
  call void @_ZNSt15_Deque_iteratorIN5boost3log11v2_mt_posix14attribute_name10repository4nodeERS5_PS5_E11_M_set_nodeEPS7_(ptr noundef nonnull align 8 dereferenceable(32) %7, ptr noundef %49) #19
  %50 = getelementptr inbounds nuw %"struct.std::_Deque_iterator", ptr %7, i32 0, i32 1
  %51 = load ptr, ptr %50, align 8, !tbaa !52
  %52 = load i64, ptr %5, align 8, !tbaa !26
  %53 = load i64, ptr %6, align 8, !tbaa !26
  %54 = call noundef i64 @_ZNSt15_Deque_iteratorIN5boost3log11v2_mt_posix14attribute_name10repository4nodeERS5_PS5_E14_S_buffer_sizeEv() #19
  %55 = mul nsw i64 %53, %54
  %56 = sub nsw i64 %52, %55
  %57 = getelementptr inbounds %"struct.boost::log::v2_mt_posix::attribute_name::repository::node", ptr %51, i64 %56
  %58 = getelementptr inbounds nuw %"struct.std::_Deque_iterator", ptr %7, i32 0, i32 0
  store ptr %57, ptr %58, align 8, !tbaa !51
  call void @llvm.lifetime.end.p0(i64 8, ptr %6) #19
  br label %59

59:                                               ; preds = %44, %24
  call void @llvm.lifetime.end.p0(i64 8, ptr %5) #19
  ret ptr %7
}

; Function Attrs: mustprogress nounwind uwtable
define linkonce_odr hidden void @_ZNSt15_Deque_iteratorIN5boost3log11v2_mt_posix14attribute_name10repository4nodeERS5_PS5_EC2ERKS8_(ptr noundef nonnull align 8 dereferenceable(32) %0, ptr noundef nonnull align 8 dereferenceable(32) %1) unnamed_addr #2 comdat align 2 {
  %3 = alloca ptr, align 8
  %4 = alloca ptr, align 8
  store ptr %0, ptr %3, align 8, !tbaa !3
  store ptr %1, ptr %4, align 8, !tbaa !3
  %5 = load ptr, ptr %3, align 8
  %6 = getelementptr inbounds nuw %"struct.std::_Deque_iterator", ptr %5, i32 0, i32 0
  %7 = load ptr, ptr %4, align 8, !tbaa !3
  %8 = getelementptr inbounds nuw %"struct.std::_Deque_iterator", ptr %7, i32 0, i32 0
  %9 = load ptr, ptr %8, align 8, !tbaa !51
  store ptr %9, ptr %6, align 8, !tbaa !51
  %10 = getelementptr inbounds nuw %"struct.std::_Deque_iterator", ptr %5, i32 0, i32 1
  %11 = load ptr, ptr %4, align 8, !tbaa !3
  %12 = getelementptr inbounds nuw %"struct.std::_Deque_iterator", ptr %11, i32 0, i32 1
  %13 = load ptr, ptr %12, align 8, !tbaa !52
  store ptr %13, ptr %10, align 8, !tbaa !52
  %14 = getelementptr inbounds nuw %"struct.std::_Deque_iterator", ptr %5, i32 0, i32 2
  %15 = load ptr, ptr %4, align 8, !tbaa !3
  %16 = getelementptr inbounds nuw %"struct.std::_Deque_iterator", ptr %15, i32 0, i32 2
  %17 = load ptr, ptr %16, align 8, !tbaa !53
  store ptr %17, ptr %14, align 8, !tbaa !53
  %18 = getelementptr inbounds nuw %"struct.std::_Deque_iterator", ptr %5, i32 0, i32 3
  %19 = load ptr, ptr %4, align 8, !tbaa !3
  %20 = getelementptr inbounds nuw %"struct.std::_Deque_iterator", ptr %19, i32 0, i32 3
  %21 = load ptr, ptr %20, align 8, !tbaa !49
  store ptr %21, ptr %18, align 8, !tbaa !49
  ret void
}

; Function Attrs: mustprogress nounwind uwtable
define linkonce_odr hidden noundef nonnull align 8 dereferenceable(64) ptr @_ZNKSt15_Deque_iteratorIN5boost3log11v2_mt_posix14attribute_name10repository4nodeERS5_PS5_EdeEv(ptr noundef nonnull align 8 dereferenceable(32) %0) #2 comdat align 2 {
  %2 = alloca ptr, align 8
  store ptr %0, ptr %2, align 8, !tbaa !3
  %3 = load ptr, ptr %2, align 8
  %4 = getelementptr inbounds nuw %"struct.std::_Deque_iterator", ptr %3, i32 0, i32 0
  %5 = load ptr, ptr %4, align 8, !tbaa !51
  ret ptr %5
}

; Function Attrs: mustprogress nounwind uwtable
define linkonce_odr void @_ZStplRKSt15_Deque_iteratorIN5boost3log11v2_mt_posix14attribute_name10repository4nodeERS5_PS5_El(ptr dead_on_unwind noalias writable sret(%"struct.std::_Deque_iterator") align 8 %0, ptr noundef nonnull align 8 dereferenceable(32) %1, i64 noundef %2) #2 comdat {
  %4 = alloca ptr, align 8
  %5 = alloca ptr, align 8
  %6 = alloca i64, align 8
  store ptr %0, ptr %4, align 8
  store ptr %1, ptr %5, align 8, !tbaa !3
  store i64 %2, ptr %6, align 8, !tbaa !26
  %7 = load ptr, ptr %5, align 8, !tbaa !3
  call void @_ZNSt15_Deque_iteratorIN5boost3log11v2_mt_posix14attribute_name10repository4nodeERS5_PS5_EC2ERKS8_(ptr noundef nonnull align 8 dereferenceable(32) %0, ptr noundef nonnull align 8 dereferenceable(32) %7) #19
  %8 = load i64, ptr %6, align 8, !tbaa !26
  %9 = call noundef nonnull align 8 dereferenceable(32) ptr @_ZNSt15_Deque_iteratorIN5boost3log11v2_mt_posix14attribute_name10repository4nodeERS5_PS5_EpLEl(ptr noundef nonnull align 8 dereferenceable(32) %0, i64 noundef %8) #19
  ret void
}

; Function Attrs: noinline noreturn nounwind uwtable
define linkonce_odr hidden void @__clang_call_terminate(ptr noundef %0) #0 comdat {
  %2 = call ptr @__cxa_begin_catch(ptr %0) #19
  call void @_ZSt9terminatev() #20
  unreachable
}

; Function Attrs: mustprogress nounwind uwtable
define linkonce_odr hidden void @_ZN5boost3log11v2_mt_posix3aux14light_rw_mutex13unlock_sharedEv(ptr noundef nonnull align 8 dereferenceable(56) %0) #2 comdat align 2 {
  %2 = alloca ptr, align 8
  store ptr %0, ptr %2, align 8, !tbaa !3
  %3 = load ptr, ptr %2, align 8
  %4 = getelementptr inbounds nuw %"class.boost::log::v2_mt_posix::aux::light_rw_mutex", ptr %3, i32 0, i32 0
  %5 = call i32 @pthread_rwlock_unlock(ptr noundef %4) #19
  ret void
}

; Function Attrs: mustprogress nounwind uwtable
define linkonce_odr hidden noundef nonnull align 8 dereferenceable(64) ptr @_ZNKSt15_Deque_iteratorIN5boost3log11v2_mt_posix14attribute_name10repository4nodeERS5_PS5_EixEl(ptr noundef nonnull align 8 dereferenceable(32) %0, i64 noundef %1) #2 comdat align 2 {
  %3 = alloca ptr, align 8
  %4 = alloca i64, align 8
  %5 = alloca %"struct.std::_Deque_iterator", align 8
  store ptr %0, ptr %3, align 8, !tbaa !3
  store i64 %1, ptr %4, align 8, !tbaa !26
  %6 = load ptr, ptr %3, align 8
  call void @llvm.lifetime.start.p0(i64 32, ptr %5) #19
  %7 = load i64, ptr %4, align 8, !tbaa !26
  call void @_ZStplRKSt15_Deque_iteratorIN5boost3log11v2_mt_posix14attribute_name10repository4nodeERS5_PS5_El(ptr dead_on_unwind writable sret(%"struct.std::_Deque_iterator") align 8 %5, ptr noundef nonnull align 8 dereferenceable(32) %6, i64 noundef %7) #19
  %8 = call noundef nonnull align 8 dereferenceable(64) ptr @_ZNKSt15_Deque_iteratorIN5boost3log11v2_mt_posix14attribute_name10repository4nodeERS5_PS5_EdeEv(ptr noundef nonnull align 8 dereferenceable(32) %5) #19
  call void @llvm.lifetime.end.p0(i64 32, ptr %5) #19
  ret ptr %8
}

; Function Attrs: mustprogress nounwind uwtable
define linkonce_odr hidden void @_ZN5boost3log11v2_mt_posix3aux14light_rw_mutex11lock_sharedEv(ptr noundef nonnull align 8 dereferenceable(56) %0) #2 comdat align 2 {
  %2 = alloca ptr, align 8
  store ptr %0, ptr %2, align 8, !tbaa !3
  %3 = load ptr, ptr %2, align 8
  %4 = getelementptr inbounds nuw %"class.boost::log::v2_mt_posix::aux::light_rw_mutex", ptr %3, i32 0, i32 0
  %5 = call i32 @pthread_rwlock_rdlock(ptr noundef %4) #19
  ret void
}

; Function Attrs: mustprogress nounwind uwtable
define linkonce_odr hidden void @_ZN5boost3log11v2_mt_posix3aux17shared_lock_guardINS2_14light_rw_mutexEED2Ev(ptr noundef nonnull align 8 dereferenceable(8) %0) unnamed_addr #2 comdat align 2 personality ptr @__gxx_personality_v0 {
  %2 = alloca ptr, align 8
  store ptr %0, ptr %2, align 8, !tbaa !3
  %3 = load ptr, ptr %2, align 8
  %4 = getelementptr inbounds nuw %"struct.boost::log::v2_mt_posix::aux::shared_lock_guard", ptr %3, i32 0, i32 0
  %5 = load ptr, ptr %4, align 8, !tbaa !28
  invoke void @_ZN5boost3log11v2_mt_posix3aux14light_rw_mutex13unlock_sharedEv(ptr noundef nonnull align 8 dereferenceable(56) %5)
          to label %6 unwind label %7

6:                                                ; preds = %1
  ret void

7:                                                ; preds = %1
  %8 = landingpad { ptr, i32 }
          catch ptr null
  %9 = extractvalue { ptr, i32 } %8, 0
  call void @__clang_call_terminate(ptr %9) #20
  unreachable
}

; Function Attrs: mustprogress nounwind uwtable
define linkonce_odr hidden noundef nonnull align 8 dereferenceable(64) ptr @_ZNSt5dequeIN5boost3log11v2_mt_posix14attribute_name10repository4nodeESaIS5_EEixEm(ptr noundef nonnull align 8 dereferenceable(80) %0, i64 noundef %1) #2 comdat align 2 {
  %3 = alloca ptr, align 8
  %4 = alloca i64, align 8
  store ptr %0, ptr %3, align 8, !tbaa !3
  store i64 %1, ptr %4, align 8, !tbaa !26
  %5 = load ptr, ptr %3, align 8
  %6 = getelementptr inbounds nuw %"class.std::_Deque_base", ptr %5, i32 0, i32 0
  %7 = getelementptr inbounds nuw %"struct.std::_Deque_base<boost::log::v2_mt_posix::attribute_name::repository::node, std::allocator<boost::log::v2_mt_posix::attribute_name::repository::node>>::_Deque_impl_data", ptr %6, i32 0, i32 2
  %8 = load i64, ptr %4, align 8, !tbaa !26
  %9 = call noundef nonnull align 8 dereferenceable(64) ptr @_ZNKSt15_Deque_iteratorIN5boost3log11v2_mt_posix14attribute_name10repository4nodeERS5_PS5_EixEl(ptr noundef nonnull align 8 dereferenceable(32) %7, i64 noundef %8) #19
  ret ptr %9
}

; Function Attrs: mustprogress uwtable
define linkonce_odr hidden void @_ZN5boost3log11v2_mt_posix3aux17shared_lock_guardINS2_14light_rw_mutexEEC2ERS4_(ptr noundef nonnull align 8 dereferenceable(8) %0, ptr noundef nonnull align 8 dereferenceable(56) %1) unnamed_addr #3 comdat align 2 {
  %3 = alloca ptr, align 8
  %4 = alloca ptr, align 8
  store ptr %0, ptr %3, align 8, !tbaa !3
  store ptr %1, ptr %4, align 8, !tbaa !3
  %5 = load ptr, ptr %3, align 8
  %6 = getelementptr inbounds nuw %"struct.boost::log::v2_mt_posix::aux::shared_lock_guard", ptr %5, i32 0, i32 0
  %7 = load ptr, ptr %4, align 8, !tbaa !3
  store ptr %7, ptr %6, align 8, !tbaa !3
  %8 = load ptr, ptr %4, align 8, !tbaa !3
  call void @_ZN5boost3log11v2_mt_posix3aux14light_rw_mutex11lock_sharedEv(ptr noundef nonnull align 8 dereferenceable(56) %8)
  ret void
}

; Function Attrs: mustprogress uwtable
define linkonce_odr hidden noundef nonnull align 8 dereferenceable(32) ptr @_ZN5boost3log11v2_mt_posix14attribute_name10repository18get_string_from_idB5cxx11Ej(ptr noundef nonnull align 8 dereferenceable(160) %0, i32 noundef %1) #3 comdat align 2 {
  %3 = alloca ptr, align 8
  %4 = alloca i32, align 4
  %5 = alloca %"struct.boost::log::v2_mt_posix::aux::shared_lock_guard", align 8
  store ptr %0, ptr %3, align 8, !tbaa !3
  store i32 %1, ptr %4, align 4, !tbaa !27
  %6 = load ptr, ptr %3, align 8
  call void @llvm.lifetime.start.p0(i64 8, ptr %5) #19
  %7 = getelementptr inbounds nuw %"class.boost::log::v2_mt_posix::attribute_name::repository", ptr %6, i32 0, i32 0
  call void @_ZN5boost3log11v2_mt_posix3aux17shared_lock_guardINS2_14light_rw_mutexEEC2ERS4_(ptr noundef nonnull align 8 dereferenceable(8) %5, ptr noundef nonnull align 8 dereferenceable(56) %7)
  %8 = getelementptr inbounds nuw %"class.boost::log::v2_mt_posix::attribute_name::repository", ptr %6, i32 0, i32 1
  %9 = load i32, ptr %4, align 4, !tbaa !27
  %10 = zext i32 %9 to i64
  %11 = call noundef nonnull align 8 dereferenceable(64) ptr @_ZNSt5dequeIN5boost3log11v2_mt_posix14attribute_name10repository4nodeESaIS5_EEixEm(ptr noundef nonnull align 8 dereferenceable(80) %8, i64 noundef %10) #19
  %12 = getelementptr inbounds nuw %"struct.boost::log::v2_mt_posix::attribute_name::repository::node", ptr %11, i32 0, i32 2
  call void @_ZN5boost3log11v2_mt_posix3aux17shared_lock_guardINS2_14light_rw_mutexEED2Ev(ptr noundef nonnull align 8 dereferenceable(8) %5) #19
  call void @llvm.lifetime.end.p0(i64 8, ptr %5) #19
  ret ptr %12
}

; Function Attrs: mustprogress nounwind uwtable
define linkonce_odr hidden noundef ptr @_ZNK5boost10shared_ptrINS_3log11v2_mt_posix14attribute_name10repositoryEEptEv(ptr noundef nonnull align 8 dereferenceable(16) %0) #2 comdat align 2 {
  %2 = alloca ptr, align 8
  store ptr %0, ptr %2, align 8, !tbaa !3
  %3 = load ptr, ptr %2, align 8
  %4 = getelementptr inbounds nuw %"class.boost::shared_ptr", ptr %3, i32 0, i32 0
  %5 = load ptr, ptr %4, align 8, !tbaa !14
  ret ptr %5
}

; Function Attrs: mustprogress uwtable
define noundef nonnull align 8 dereferenceable(32) ptr @_ZN5boost3log11v2_mt_posix14attribute_name18get_string_from_idB5cxx11Ej(i32 noundef %0) #3 align 2 {
  %2 = alloca i32, align 4
  store i32 %0, ptr %2, align 4, !tbaa !27
  %3 = call noundef nonnull align 8 dereferenceable(16) ptr @_ZN5boost3log11v2_mt_posix3aux14lazy_singletonINS1_14attribute_name10repositoryENS_10shared_ptrIS5_EEE3getEv()
  %4 = call noundef ptr @_ZNK5boost10shared_ptrINS_3log11v2_mt_posix14attribute_name10repositoryEEptEv(ptr noundef nonnull align 8 dereferenceable(16) %3) #19
  %5 = load i32, ptr %2, align 4, !tbaa !27
  %6 = call noundef nonnull align 8 dereferenceable(32) ptr @_ZN5boost3log11v2_mt_posix14attribute_name10repository18get_string_from_idB5cxx11Ej(ptr noundef nonnull align 8 dereferenceable(160) %4, i32 noundef %5)
  ret ptr %6
}