; Function Attrs: mustprogress uwtable
define noundef nonnull align 8 dereferenceable(32) ptr @_ZN5boost3log11v2_mt_posix14attribute_name18get_string_from_idB5cxx11Ej(i32 noundef %0) local_unnamed_addr #3 align 2 personality ptr @__gxx_personality_v0 {
  %2 = tail call noundef nonnull align 8 dereferenceable(16) ptr @_ZN5boost3log11v2_mt_posix3aux14lazy_singletonINS1_14attribute_name10repositoryENS_10shared_ptrIS5_EEE3getEv()
  %3 = load ptr, ptr %2, align 8, !tbaa !17
  %4 = tail call i32 @pthread_rwlock_rdlock(ptr noundef nonnull align 8 dereferenceable(160) %3) #22
  %5 = zext i32 %0 to i64
  %6 = getelementptr inbounds nuw i8, ptr %3, i64 72
  %7 = load ptr, ptr %6, align 8, !tbaa !20, !noalias !97
  %8 = getelementptr inbounds nuw i8, ptr %3, i64 80
  %9 = load ptr, ptr %8, align 8, !tbaa !25, !noalias !97
  %10 = getelementptr inbounds nuw i8, ptr %3, i64 96
  %11 = load ptr, ptr %10, align 8, !tbaa !26, !noalias !97
  %12 = ptrtoint ptr %7 to i64
  %13 = ptrtoint ptr %9 to i64
  %14 = sub i64 %12, %13
  %15 = ashr exact i64 %14, 6
  %16 = add nsw i64 %15, %5
  %17 = icmp sgt i64 %16, -1
  br i1 %17, label %18, label %24

18:                                               ; preds = %1
  %19 = icmp ult i64 %16, 8
  br i1 %19, label %20, label %22

20:                                               ; preds = %18
  %21 = getelementptr inbounds %"struct.boost::log::v2_mt_posix::attribute_name::repository::node", ptr %7, i64 %5
  br label %_ZN5boost3log11v2_mt_posix14attribute_name10repository18get_string_from_idB5cxx11Ej.exit

22:                                               ; preds = %18
  %23 = lshr i64 %16, 3
  br label %26

24:                                               ; preds = %1
  %25 = ashr i64 %16, 3
  br label %26

26:                                               ; preds = %24, %22
  %27 = phi i64 [ %23, %22 ], [ %25, %24 ]
  %28 = getelementptr inbounds ptr, ptr %11, i64 %27
  %29 = load ptr, ptr %28, align 8, !tbaa !27, !noalias !97
  %30 = shl nsw i64 %27, 3
  %31 = sub nsw i64 %16, %30
  %32 = getelementptr inbounds %"struct.boost::log::v2_mt_posix::attribute_name::repository::node", ptr %29, i64 %31
  br label %_ZN5boost3log11v2_mt_posix14attribute_name10repository18get_string_from_idB5cxx11Ej.exit

_ZN5boost3log11v2_mt_posix14attribute_name10repository18get_string_from_idB5cxx11Ej.exit: ; preds = %20, %26
  %storemerge.i.i.i.i.i = phi ptr [ %32, %26 ], [ %21, %20 ]
  %33 = getelementptr inbounds nuw i8, ptr %storemerge.i.i.i.i.i, i64 32
  %34 = tail call i32 @pthread_rwlock_unlock(ptr noundef nonnull align 8 dereferenceable(160) %3) #22
  ret ptr %33
}